; Function Attrs: nounwind uwtable
define internal void @ga_dealloc(ptr noundef %0) #0 {
  %2 = getelementptr i8, ptr %0, i64 -16
  %3 = getelementptr i8, ptr %0, i64 -8
  %.val.i = load i64, ptr %3, align 8, !tbaa !43
  %4 = and i64 %.val.i, -4
  %5 = inttoptr i64 %4 to ptr
  %.val9.i = load i64, ptr %2, align 8, !tbaa !45
  %6 = and i64 %.val9.i, -4
  %7 = inttoptr i64 %6 to ptr
  %8 = load i64, ptr %5, align 8, !tbaa !45
  %9 = and i64 %8, 3
  %10 = or disjoint i64 %9, %6
  store i64 %10, ptr %5, align 8, !tbaa !45
  %11 = getelementptr inbounds nuw i8, ptr %7, i64 8
  %12 = load i64, ptr %11, align 8, !tbaa !43
  %13 = and i64 %12, 3
  %14 = or disjoint i64 %13, %4
  store i64 %14, ptr %11, align 8, !tbaa !43
  store i64 0, ptr %2, align 8, !tbaa !45
  %15 = load i64, ptr %3, align 8, !tbaa !43
  %16 = and i64 %15, 1
  store i64 %16, ptr %3, align 8, !tbaa !43
  %17 = getelementptr inbounds nuw i8, ptr %0, i64 40
  %18 = load ptr, ptr %17, align 8, !tbaa !46
  %.not = icmp eq ptr %18, null
  br i1 %.not, label %20, label %19

19:                                               ; preds = %1
  tail call void @PyObject_ClearWeakRefs(ptr noundef nonnull %0) #5
  br label %20

20:                                               ; preds = %19, %1
  %21 = getelementptr inbounds nuw i8, ptr %0, i64 16
  %22 = load ptr, ptr %21, align 8, !tbaa !33
  %.not.i = icmp eq ptr %22, null
  br i1 %.not.i, label %Py_XDECREF.exit, label %23

23:                                               ; preds = %20
  %24 = load i32, ptr %22, align 8, !tbaa !23
  %.not.i.i = icmp sgt i32 %24, -1
  br i1 %.not.i.i, label %25, label %Py_XDECREF.exit

25:                                               ; preds = %23
  %26 = add nsw i32 %24, -1
  store i32 %26, ptr %22, align 8, !tbaa !23
  %27 = icmp eq i32 %26, 0
  br i1 %27, label %28, label %Py_XDECREF.exit

28:                                               ; preds = %25
  tail call void @_Py_Dealloc(ptr noundef nonnull %22) #5
  br label %Py_XDECREF.exit

Py_XDECREF.exit:                                  ; preds = %20, %23, %25, %28
  %29 = getelementptr inbounds nuw i8, ptr %0, i64 24
  %30 = load ptr, ptr %29, align 8, !tbaa !34
  %.not.i9 = icmp eq ptr %30, null
  br i1 %.not.i9, label %Py_XDECREF.exit11, label %31

31:                                               ; preds = %Py_XDECREF.exit
  %32 = load i32, ptr %30, align 8, !tbaa !23
  %.not.i.i10 = icmp sgt i32 %32, -1
  br i1 %.not.i.i10, label %33, label %Py_XDECREF.exit11

33:                                               ; preds = %31
  %34 = add nsw i32 %32, -1
  store i32 %34, ptr %30, align 8, !tbaa !23
  %35 = icmp eq i32 %34, 0
  br i1 %35, label %36, label %Py_XDECREF.exit11

36:                                               ; preds = %33
  tail call void @_Py_Dealloc(ptr noundef nonnull %30) #5
  br label %Py_XDECREF.exit11

Py_XDECREF.exit11:                                ; preds = %Py_XDECREF.exit, %31, %33, %36
  %37 = getelementptr inbounds nuw i8, ptr %0, i64 32
  %38 = load ptr, ptr %37, align 8, !tbaa !47
  %.not.i12 = icmp eq ptr %38, null
  br i1 %.not.i12, label %Py_XDECREF.exit14, label %39

39:                                               ; preds = %Py_XDECREF.exit11
  %40 = load i32, ptr %38, align 8, !tbaa !23
  %.not.i.i13 = icmp sgt i32 %40, -1
  br i1 %.not.i.i13, label %41, label %Py_XDECREF.exit14

41:                                               ; preds = %39
  %42 = add nsw i32 %40, -1
  store i32 %42, ptr %38, align 8, !tbaa !23
  %43 = icmp eq i32 %42, 0
  br i1 %43, label %44, label %Py_XDECREF.exit14

44:                                               ; preds = %41
  tail call void @_Py_Dealloc(ptr noundef nonnull %38) #5
  br label %Py_XDECREF.exit14

Py_XDECREF.exit14:                                ; preds = %Py_XDECREF.exit11, %39, %41, %44
  %45 = getelementptr i8, ptr %0, i64 8
  %.val = load ptr, ptr %45, align 8, !tbaa !14
  %46 = getelementptr inbounds nuw i8, ptr %.val, i64 320
  %47 = load ptr, ptr %46, align 8, !tbaa !48
  tail call void %47(ptr noundef nonnull %0) #5
  ret void
}